target datalayout = "e-m:e-p270:32:32-p271:32:32-p272:64:64-i64:64-i128:128-f80:128-n8:16:32:64-S128"
target triple = "x86_64-pc-linux-gnu"

; Function Attrs: nounwind uwtable
define dso_local i32 @daemon_avoid_alias(ptr noundef %0) #0 {
  %2 = alloca i32, align 4
  %3 = alloca ptr, align 8
  %4 = alloca i32, align 4
  %5 = alloca i32, align 4
  %6 = alloca i32, align 4
  %7 = alloca i8, align 1
  store ptr %0, ptr %3, align 8, !tbaa !43
  call void @llvm.lifetime.start.p0(i64 4, ptr %4) #12
  call void @llvm.lifetime.start.p0(i64 4, ptr %5) #12
  %8 = load ptr, ptr %3, align 8, !tbaa !43
  %9 = icmp ne ptr %8, null
  br i1 %9, label %10, label %20

10:                                               ; preds = %1
  %11 = load ptr, ptr %3, align 8, !tbaa !43
  %12 = load i8, ptr %11, align 1, !tbaa !18
  %13 = sext i8 %12 to i32
  %14 = icmp ne i32 %13, 47
  br i1 %14, label %15, label %21

15:                                               ; preds = %10
  %16 = load ptr, ptr %3, align 8, !tbaa !43
  %17 = load i8, ptr %16, align 1, !tbaa !18
  %18 = sext i8 %17 to i32
  %19 = icmp ne i32 %18, 126
  br i1 %19, label %20, label %21

20:                                               ; preds = %15, %1
  store i32 -1, ptr %2, align 4
  store i32 1, ptr %6, align 4
  br label %79

21:                                               ; preds = %15, %10
  store i32 1, ptr %4, align 4, !tbaa !4
  store i32 0, ptr %5, align 4, !tbaa !4
  %22 = load ptr, ptr %3, align 8, !tbaa !43
  %23 = getelementptr inbounds nuw i8, ptr %22, i32 1
  store ptr %23, ptr %3, align 8, !tbaa !43
  br label %24

24:                                               ; preds = %78, %21
  br label %25

25:                                               ; preds = %24
  call void @llvm.lifetime.start.p0(i64 1, ptr %7) #12
  %26 = load ptr, ptr %3, align 8, !tbaa !43
  %27 = getelementptr inbounds nuw i8, ptr %26, i32 1
  store ptr %27, ptr %3, align 8, !tbaa !43
  %28 = load i8, ptr %26, align 1, !tbaa !18
  store i8 %28, ptr %7, align 1, !tbaa !18
  %29 = load i32, ptr %4, align 4, !tbaa !4
  %30 = icmp ne i32 %29, 0
  br i1 %30, label %31, label %63

31:                                               ; preds = %25
  %32 = load i8, ptr %7, align 1, !tbaa !18
  %33 = sext i8 %32 to i32
  %34 = icmp eq i32 %33, 46
  br i1 %34, label %35, label %38

35:                                               ; preds = %31
  %36 = load i32, ptr %5, align 4, !tbaa !4
  %37 = add nsw i32 %36, 1
  store i32 %37, ptr %5, align 4, !tbaa !4
  br label %62

38:                                               ; preds = %31
  %39 = load i8, ptr %7, align 1, !tbaa !18
  %40 = sext i8 %39 to i32
  %41 = icmp eq i32 %40, 47
  br i1 %41, label %42, label %47

42:                                               ; preds = %38
  %43 = load i32, ptr %5, align 4, !tbaa !4
  %44 = icmp slt i32 %43, 3
  br i1 %44, label %45, label %46

45:                                               ; preds = %42
  store i32 -1, ptr %2, align 4
  store i32 1, ptr %6, align 4
  br label %76

46:                                               ; preds = %42
  store i32 0, ptr %5, align 4, !tbaa !4
  br label %61

47:                                               ; preds = %38
  %48 = load i8, ptr %7, align 1, !tbaa !18
  %49 = sext i8 %48 to i32
  %50 = icmp eq i32 %49, 0
  br i1 %50, label %51, label %59

51:                                               ; preds = %47
  %52 = load i32, ptr %5, align 4, !tbaa !4
  %53 = icmp slt i32 0, %52
  br i1 %53, label %54, label %58

54:                                               ; preds = %51
  %55 = load i32, ptr %5, align 4, !tbaa !4
  %56 = icmp slt i32 %55, 3
  br i1 %56, label %57, label %58

57:                                               ; preds = %54
  store i32 -1, ptr %2, align 4
  store i32 1, ptr %6, align 4
  br label %76

58:                                               ; preds = %54, %51
  store i32 0, ptr %2, align 4
  store i32 1, ptr %6, align 4
  br label %76

59:                                               ; preds = %47
  store i32 0, ptr %5, align 4, !tbaa !4
  store i32 0, ptr %4, align 4, !tbaa !4
  br label %60

60:                                               ; preds = %59
  br label %61

61:                                               ; preds = %60, %46
  br label %62

62:                                               ; preds = %61, %35
  br label %75

63:                                               ; preds = %25
  %64 = load i8, ptr %7, align 1, !tbaa !18
  %65 = sext i8 %64 to i32
  %66 = icmp eq i32 %65, 0
  br i1 %66, label %67, label %68

67:                                               ; preds = %63
  store i32 0, ptr %2, align 4
  store i32 1, ptr %6, align 4
  br label %76

68:                                               ; preds = %63
  %69 = load i8, ptr %7, align 1, !tbaa !18
  %70 = sext i8 %69 to i32
  %71 = icmp eq i32 %70, 47
  br i1 %71, label %72, label %73

72:                                               ; preds = %68
  store i32 1, ptr %4, align 4, !tbaa !4
  store i32 0, ptr %5, align 4, !tbaa !4
  br label %73

73:                                               ; preds = %72, %68
  br label %74

74:                                               ; preds = %73
  br label %75

75:                                               ; preds = %74, %62
  store i32 0, ptr %6, align 4
  br label %76

76:                                               ; preds = %75, %67, %58, %57, %45
  call void @llvm.lifetime.end.p0(i64 1, ptr %7) #12
  %77 = load i32, ptr %6, align 4
  switch i32 %77, label %79 [
    i32 0, label %78
  ]

78:                                               ; preds = %76
  br label %24

79:                                               ; preds = %76, %20
  call void @llvm.lifetime.end.p0(i64 4, ptr %5) #12
  call void @llvm.lifetime.end.p0(i64 4, ptr %4) #12
  %80 = load i32, ptr %2, align 4
  ret i32 %80
}