; Function Attrs: nofree norecurse nosync nounwind memory(argmem: read) uwtable
define dso_local range(i32 -1, 1) i32 @daemon_avoid_alias(ptr noundef readonly %0) local_unnamed_addr #19 {
  %.not = icmp eq ptr %0, null
  br i1 %.not, label %.thread, label %2

2:                                                ; preds = %1
  %3 = load i8, ptr %0, align 1, !tbaa !14
  switch i8 %3, label %.thread [
    i8 47, label %.preheader
    i8 126, label %.preheader
  ]

.preheader:                                       ; preds = %2, %2
  br label %.outer

.outer:                                           ; preds = %.outer.backedge, %.preheader
  %.pn.ph = phi ptr [ %0, %.preheader ], [ %.024, %.outer.backedge ]
  %.not31.ph = phi i1 [ false, %.preheader ], [ %.not31.ph.be, %.outer.backedge ]
  %.018.ph = phi i32 [ 0, %.preheader ], [ %.018.ph.be, %.outer.backedge ]
  br label %4

4:                                                ; preds = %.outer, %13
  %.pn = phi ptr [ %.024, %13 ], [ %.pn.ph, %.outer ]
  %.not31 = phi i1 [ true, %13 ], [ %.not31.ph, %.outer ]
  %.024 = getelementptr inbounds nuw i8, ptr %.pn, i64 1
  %5 = load i8, ptr %.024, align 1, !tbaa !14
  br i1 %.not31, label %13, label %6

6:                                                ; preds = %4
  switch i8 %5, label %.outer.backedge [
    i8 46, label %7
    i8 47, label %9
    i8 0, label %11
  ]

7:                                                ; preds = %6
  %8 = add nsw i32 %.018.ph, 1
  br label %.outer.backedge

.outer.backedge:                                  ; preds = %13, %7, %9, %6
  %.not31.ph.be = phi i1 [ true, %6 ], [ false, %9 ], [ false, %7 ], [ false, %13 ]
  %.018.ph.be = phi i32 [ 0, %6 ], [ 0, %9 ], [ %8, %7 ], [ 0, %13 ]
  br label %.outer

9:                                                ; preds = %6
  %10 = icmp slt i32 %.018.ph, 3
  br i1 %10, label %.thread, label %.outer.backedge

11:                                               ; preds = %6
  %12 = add i32 %.018.ph, -1
  %or.cond = icmp ult i32 %12, 2
  %. = sext i1 %or.cond to i32
  br label %.thread

13:                                               ; preds = %4
  switch i8 %5, label %4 [
    i8 0, label %.thread
    i8 47, label %.outer.backedge
  ]

.thread:                                          ; preds = %13, %9, %11, %1, %2
  %.0 = phi i32 [ -1, %2 ], [ -1, %1 ], [ %., %11 ], [ 0, %13 ], [ -1, %9 ]
  ret i32 %.0
}